; Function Attrs: nounwind sspstrong uwtable
define internal void @char_init(ptr noundef %obj) #0 {
entry:
  %call.i = tail call ptr @object_dynamic_cast_assert(ptr noundef %obj, ptr noundef nonnull @.str.4, ptr noundef nonnull @.str.104, i32 noundef 231, ptr noundef nonnull @__func__.CHARDEV) #13
  %handover_yank_instance = getelementptr inbounds nuw i8, ptr %call.i, i64 120
  store i8 0, ptr %handover_yank_instance, align 8
  %logfd = getelementptr inbounds nuw i8, ptr %call.i, i64 112
  store i32 -1, ptr %logfd, align 8
  %chr_write_lock = getelementptr inbounds nuw i8, ptr %call.i, i64 40
  tail call void @qemu_mutex_init(ptr noundef nonnull %chr_write_lock) #13
  %call.i5 = tail call ptr @object_get_class(ptr noundef %call.i) #13
  %call1.i = tail call ptr @object_class_dynamic_cast_assert(ptr noundef %call.i5, ptr noundef nonnull @.str.4, ptr noundef nonnull @.str.104, i32 noundef 231, ptr noundef nonnull @__func__.CHARDEV_GET_CLASS) #13
  %chr_update_read_handler = getelementptr inbounds nuw i8, ptr %call1.i, i64 144
  %0 = load ptr, ptr %chr_update_read_handler, align 8
  %tobool.not = icmp eq ptr %0, null
  br i1 %tobool.not, label %if.end, label %if.then

if.then:                                          ; preds = %entry
  %features.i = getelementptr inbounds nuw i8, ptr %call.i, i64 144
  %1 = load i64, ptr %features.i, align 8
  %or.i.i = or i64 %1, 8
  store i64 %or.i.i, ptr %features.i, align 8
  br label %if.end

if.end:                                           ; preds = %if.then, %entry
  ret void
}